; Function Attrs: nounwind uwtable
define ptr @l_Lake_Toml_litWithAntiquot_formatter(ptr noundef %0, ptr noundef %1, ptr noundef %2, ptr noundef %3, i8 noundef zeroext %4, ptr noundef %5, ptr noundef %6, ptr noundef %7, ptr noundef %8, ptr noundef %9) local_unnamed_addr #1 {
  %11 = zext i8 %4 to i64
  %12 = shl nuw nsw i64 %11, 1
  %13 = or disjoint i64 %12, 1
  %14 = inttoptr i64 %13 to ptr
  %15 = ptrtoint ptr %1 to i64
  %16 = and i64 %15, 1
  %.not = icmp eq i64 %16, 0
  br i1 %.not, label %17, label %lean_inc.exit

17:                                               ; preds = %10
  %.val.i = load i32, ptr %1, align 4, !tbaa !4
  %18 = icmp sgt i32 %.val.i, 0
  br i1 %18, label %19, label %21, !prof !9

19:                                               ; preds = %17
  %20 = add nuw i32 %.val.i, 1
  store i32 %20, ptr %1, align 4, !tbaa !4
  br label %lean_inc.exit

21:                                               ; preds = %17
  %.not.i = icmp eq i32 %.val.i, 0
  br i1 %.not.i, label %lean_inc.exit, label %22

22:                                               ; preds = %21
  tail call void @lean_inc_ref_cold(ptr noundef nonnull %1) #4
  br label %lean_inc.exit

lean_inc.exit:                                    ; preds = %22, %21, %19, %10
  tail call void @lean_inc_heartbeat() #4
  %23 = tail call noalias ptr @mi_malloc_small(i64 noundef 56) #4
  %24 = icmp eq ptr %23, null
  br i1 %24, label %25, label %lean_alloc_closure.exit

25:                                               ; preds = %lean_inc.exit
  tail call void @lean_internal_panic_out_of_memory() #5
  unreachable

lean_alloc_closure.exit:                          ; preds = %lean_inc.exit
  %26 = getelementptr inbounds nuw i8, ptr %23, i64 4
  store i32 1, ptr %23, align 4, !tbaa !4
  store i32 -184549320, ptr %26, align 4
  %27 = getelementptr inbounds nuw i8, ptr %23, i64 8
  store ptr @l_Lean_Parser_mkAntiquot_formatter___boxed, ptr %27, align 8, !tbaa !10
  %28 = getelementptr inbounds nuw i8, ptr %23, i64 16
  store i16 9, ptr %28, align 8, !tbaa !18
  %29 = getelementptr inbounds nuw i8, ptr %23, i64 18
  store i16 4, ptr %29, align 2, !tbaa !18
  %30 = getelementptr inbounds nuw i8, ptr %23, i64 24
  store ptr %0, ptr %30, align 8, !tbaa !10
  %31 = getelementptr inbounds nuw i8, ptr %23, i64 32
  store ptr %1, ptr %31, align 8, !tbaa !10
  %32 = getelementptr inbounds nuw i8, ptr %23, i64 40
  store ptr %14, ptr %32, align 8, !tbaa !10
  %33 = getelementptr inbounds nuw i8, ptr %23, i64 48
  store ptr inttoptr (i64 1 to ptr), ptr %33, align 8, !tbaa !10
  tail call void @lean_inc_heartbeat() #4
  %34 = tail call noalias ptr @mi_malloc_small(i64 noundef 48) #4
  %35 = icmp eq ptr %34, null
  br i1 %35, label %36, label %lean_alloc_closure.exit24

36:                                               ; preds = %lean_alloc_closure.exit
  tail call void @lean_internal_panic_out_of_memory() #5
  unreachable

lean_alloc_closure.exit24:                        ; preds = %lean_alloc_closure.exit
  %37 = getelementptr inbounds nuw i8, ptr %34, i64 4
  store i32 1, ptr %34, align 4, !tbaa !4
  store i32 -184549328, ptr %37, align 4
  %38 = getelementptr inbounds nuw i8, ptr %34, i64 8
  store ptr @l_Lake_Toml_lit_formatter___boxed, ptr %38, align 8, !tbaa !10
  %39 = getelementptr inbounds nuw i8, ptr %34, i64 16
  store i16 8, ptr %39, align 8, !tbaa !18
  %40 = getelementptr inbounds nuw i8, ptr %34, i64 18
  store i16 3, ptr %40, align 2, !tbaa !18
  %41 = getelementptr inbounds nuw i8, ptr %34, i64 24
  store ptr %1, ptr %41, align 8, !tbaa !10
  %42 = getelementptr inbounds nuw i8, ptr %34, i64 32
  store ptr %2, ptr %42, align 8, !tbaa !10
  %43 = getelementptr inbounds nuw i8, ptr %34, i64 40
  store ptr %3, ptr %43, align 8, !tbaa !10
  %44 = tail call ptr @l_Lean_PrettyPrinter_Formatter_orelse_formatter(ptr noundef nonnull %23, ptr noundef nonnull %34, ptr noundef %5, ptr noundef %6, ptr noundef %7, ptr noundef %8, ptr noundef %9) #4
  ret ptr %44
}